target datalayout = "e-m:e-p270:32:32-p271:32:32-p272:64:64-i64:64-i128:128-f80:128-n8:16:32:64-S128"
target triple = "x86_64-pc-linux-gnu"

%struct.ident_t = type { i32, i32, i32, i32, ptr }
%"class.std::vector.4" = type { %"struct.std::_Vector_base.5" }
%"struct.std::_Vector_base.5" = type { %"struct.std::_Vector_base<Eigen::Matrix<double, 3, 3>, std::allocator<Eigen::Matrix<double, 3, 3>>>::_Vector_impl" }
%"struct.std::_Vector_base<Eigen::Matrix<double, 3, 3>, std::allocator<Eigen::Matrix<double, 3, 3>>>::_Vector_impl" = type { %"struct.std::_Vector_base<Eigen::Matrix<double, 3, 3>, std::allocator<Eigen::Matrix<double, 3, 3>>>::_Vector_impl_data" }
%"struct.std::_Vector_base<Eigen::Matrix<double, 3, 3>, std::allocator<Eigen::Matrix<double, 3, 3>>>::_Vector_impl_data" = type { ptr, ptr, ptr }
%"class.open3d::geometry::PointCloud" = type { %"class.open3d::geometry::Geometry3D", %"class.std::vector", %"class.std::vector", %"class.std::vector", %"class.std::vector.4" }
%"class.open3d::geometry::Geometry3D" = type { %"class.open3d::geometry::Geometry" }
%"class.open3d::geometry::Geometry" = type { ptr, i32, i32, %"class.std::__cxx11::basic_string" }
%"class.std::__cxx11::basic_string" = type { %"struct.std::__cxx11::basic_string<char>::_Alloc_hider", i64, %union.anon }
%"struct.std::__cxx11::basic_string<char>::_Alloc_hider" = type { ptr }
%union.anon = type { i64, [8 x i8] }
%"class.std::vector" = type { %"struct.std::_Vector_base" }
%"struct.std::_Vector_base" = type { %"struct.std::_Vector_base<Eigen::Matrix<double, 3, 1>, std::allocator<Eigen::Matrix<double, 3, 1>>>::_Vector_impl" }
%"struct.std::_Vector_base<Eigen::Matrix<double, 3, 1>, std::allocator<Eigen::Matrix<double, 3, 1>>>::_Vector_impl" = type { %"struct.std::_Vector_base<Eigen::Matrix<double, 3, 1>, std::allocator<Eigen::Matrix<double, 3, 1>>>::_Vector_impl_data" }
%"struct.std::_Vector_base<Eigen::Matrix<double, 3, 1>, std::allocator<Eigen::Matrix<double, 3, 1>>>::_Vector_impl_data" = type { ptr, ptr, ptr }

@2 = private unnamed_addr constant %struct.ident_t { i32 0, i32 2, i32 0, i32 22, ptr @0 }, align 8
@.str.3 = private unnamed_addr constant [131 x i8] c"generated/home/dtcxzyw/WorkSpace/Projects/compilers/llvm-opt-benchmark/bench/open3d/Open3D/cpp/open3d/geometry/EstimateNormals.cpp\00", align 1
@.str.4 = private unnamed_addr constant [60 x i8] c"No normals in the PointCloud. Call EstimateNormals() first.\00", align 1
@__PRETTY_FUNCTION__._ZN6open3d8geometry10PointCloud34OrientNormalsTowardsCameraLocationERKN5Eigen6MatrixIdLi3ELi1ELi0ELi3ELi1EEE = private unnamed_addr constant [95 x i8] c"void open3d::geometry::PointCloud::OrientNormalsTowardsCameraLocation(const Eigen::Vector3d &)\00", align 1

; Function Attrs: mustprogress nounwind ssp uwtable
define linkonce_odr noundef i64 @_ZNKSt6vectorIN5Eigen6MatrixIdLi3ELi1ELi0ELi3ELi1EEESaIS2_EE4sizeEv(ptr noundef nonnull align 8 dereferenceable(24) %0) #1 comdat align 2 {
  %2 = alloca ptr, align 8
  store ptr %0, ptr %2, align 8, !tbaa !27
  %3 = load ptr, ptr %2, align 8
  %4 = getelementptr inbounds nuw %"struct.std::_Vector_base", ptr %3, i32 0, i32 0
  %5 = getelementptr inbounds nuw %"struct.std::_Vector_base<Eigen::Matrix<double, 3, 1>, std::allocator<Eigen::Matrix<double, 3, 1>>>::_Vector_impl_data", ptr %4, i32 0, i32 1
  %6 = load ptr, ptr %5, align 8, !tbaa !34
  %7 = getelementptr inbounds nuw %"struct.std::_Vector_base", ptr %3, i32 0, i32 0
  %8 = getelementptr inbounds nuw %"struct.std::_Vector_base<Eigen::Matrix<double, 3, 1>, std::allocator<Eigen::Matrix<double, 3, 1>>>::_Vector_impl_data", ptr %7, i32 0, i32 0
  %9 = load ptr, ptr %8, align 8, !tbaa !31
  %10 = ptrtoint ptr %6 to i64
  %11 = ptrtoint ptr %9 to i64
  %12 = sub i64 %10, %11
  %13 = sdiv exact i64 %12, 24
  ret i64 %13
}

; Function Attrs: mustprogress nounwind ssp uwtable
define linkonce_odr noundef zeroext i1 @_ZNK6open3d8geometry10PointCloud10HasNormalsEv(ptr noundef nonnull align 8 dereferenceable(144) %0) #1 comdat align 2 {
  %2 = alloca ptr, align 8
  store ptr %0, ptr %2, align 8, !tbaa !19
  %3 = load ptr, ptr %2, align 8
  %4 = getelementptr inbounds nuw %"class.open3d::geometry::PointCloud", ptr %3, i32 0, i32 1
  %5 = call noundef i64 @_ZNKSt6vectorIN5Eigen6MatrixIdLi3ELi1ELi0ELi3ELi1EEESaIS2_EE4sizeEv(ptr noundef nonnull align 8 dereferenceable(24) %4) #6
  %6 = icmp ugt i64 %5, 0
  br i1 %6, label %7, label %13

7:                                                ; preds = %1
  %8 = getelementptr inbounds nuw %"class.open3d::geometry::PointCloud", ptr %3, i32 0, i32 2
  %9 = call noundef i64 @_ZNKSt6vectorIN5Eigen6MatrixIdLi3ELi1ELi0ELi3ELi1EEESaIS2_EE4sizeEv(ptr noundef nonnull align 8 dereferenceable(24) %8) #6
  %10 = getelementptr inbounds nuw %"class.open3d::geometry::PointCloud", ptr %3, i32 0, i32 1
  %11 = call noundef i64 @_ZNKSt6vectorIN5Eigen6MatrixIdLi3ELi1ELi0ELi3ELi1EEESaIS2_EE4sizeEv(ptr noundef nonnull align 8 dereferenceable(24) %10) #6
  %12 = icmp eq i64 %9, %11
  br label %13

13:                                               ; preds = %7, %1
  %14 = phi i1 [ false, %1 ], [ %12, %7 ]
  ret i1 %14
}

; Function Attrs: mustprogress ssp uwtable
define void @_ZN6open3d8geometry10PointCloud34OrientNormalsTowardsCameraLocationERKN5Eigen6MatrixIdLi3ELi1ELi0ELi3ELi1EEE(ptr noundef nonnull align 8 dereferenceable(144) %0, ptr noundef nonnull align 8 dereferenceable(24) %1) #3 align 2 {
  %3 = alloca ptr, align 8
  %4 = alloca ptr, align 8
  %5 = call i32 @__kmpc_global_thread_num(ptr @2)
  store ptr %0, ptr %3, align 8, !tbaa !19
  store ptr %1, ptr %4, align 8, !tbaa !53
  %6 = load ptr, ptr %3, align 8
  %7 = call noundef zeroext i1 @_ZNK6open3d8geometry10PointCloud10HasNormalsEv(ptr noundef nonnull align 8 dereferenceable(144) %6)
  br i1 %7, label %9, label %8

8:                                                ; preds = %2
  call void @_ZN6open3d7utility6Logger9LogError_IJEEEvPKciS4_S4_DpOT_(ptr noundef @.str.3, i32 noundef 342, ptr noundef @__PRETTY_FUNCTION__._ZN6open3d8geometry10PointCloud34OrientNormalsTowardsCameraLocationERKN5Eigen6MatrixIdLi3ELi1ELi0ELi3ELi1EEE, ptr noundef @.str.4) #28
  unreachable

9:                                                ; preds = %2
  %10 = call noundef i32 @_ZN6open3d7utility18EstimateMaxThreadsEv()
  call void @__kmpc_push_num_threads(ptr @2, i32 %5, i32 %10)
  %11 = load ptr, ptr %4, align 8, !tbaa !53
  call void (ptr, i32, ptr, ...) @__kmpc_fork_call(ptr @2, i32 2, ptr @_ZN6open3d8geometry10PointCloud34OrientNormalsTowardsCameraLocationERKN5Eigen6MatrixIdLi3ELi1ELi0ELi3ELi1EEE.omp_outlined, ptr %6, ptr %11)
  ret void
}