; Function Attrs: mustprogress ssp uwtable
define void @_ZN6open3d8geometry10PointCloud34OrientNormalsTowardsCameraLocationERKN5Eigen6MatrixIdLi3ELi1ELi0ELi3ELi1EEE(ptr noundef nonnull align 8 dereferenceable(144) %0, ptr noundef nonnull align 8 dereferenceable(24) %1) local_unnamed_addr #1 align 2 {
  %3 = tail call i32 @__kmpc_global_thread_num(ptr nonnull @2)
  %4 = getelementptr inbounds nuw i8, ptr %0, i64 48
  %5 = getelementptr inbounds nuw i8, ptr %0, i64 56
  %6 = load ptr, ptr %5, align 8, !tbaa !8
  %7 = load ptr, ptr %4, align 8, !tbaa !12
  %.not.i = icmp eq ptr %6, %7
  br i1 %.not.i, label %_ZNK6open3d8geometry10PointCloud10HasNormalsEv.exit.thread, label %_ZNK6open3d8geometry10PointCloud10HasNormalsEv.exit

_ZNK6open3d8geometry10PointCloud10HasNormalsEv.exit: ; preds = %2
  %8 = ptrtoint ptr %6 to i64
  %9 = ptrtoint ptr %7 to i64
  %10 = sub i64 %8, %9
  %11 = getelementptr inbounds nuw i8, ptr %0, i64 72
  %12 = getelementptr inbounds nuw i8, ptr %0, i64 80
  %13 = load ptr, ptr %12, align 8, !tbaa !8
  %14 = load ptr, ptr %11, align 8, !tbaa !12
  %15 = ptrtoint ptr %13 to i64
  %16 = ptrtoint ptr %14 to i64
  %17 = sub i64 %15, %16
  %18 = icmp eq i64 %17, %10
  br i1 %18, label %19, label %_ZNK6open3d8geometry10PointCloud10HasNormalsEv.exit.thread

_ZNK6open3d8geometry10PointCloud10HasNormalsEv.exit.thread: ; preds = %2, %_ZNK6open3d8geometry10PointCloud10HasNormalsEv.exit
  tail call void @_ZN6open3d7utility6Logger9LogError_IJEEEvPKciS4_S4_DpOT_(ptr noundef nonnull @.str.3, i32 noundef 342, ptr noundef nonnull @__PRETTY_FUNCTION__._ZN6open3d8geometry10PointCloud34OrientNormalsTowardsCameraLocationERKN5Eigen6MatrixIdLi3ELi1ELi0ELi3ELi1EEE, ptr noundef nonnull @.str.4) #29
  unreachable

19:                                               ; preds = %_ZNK6open3d8geometry10PointCloud10HasNormalsEv.exit
  %20 = tail call noundef i32 @_ZN6open3d7utility18EstimateMaxThreadsEv()
  tail call void @__kmpc_push_num_threads(ptr nonnull @2, i32 %3, i32 %20)
  tail call void (ptr, i32, ptr, ...) @__kmpc_fork_call(ptr nonnull @2, i32 2, ptr nonnull @_ZN6open3d8geometry10PointCloud34OrientNormalsTowardsCameraLocationERKN5Eigen6MatrixIdLi3ELi1ELi0ELi3ELi1EEE.omp_outlined, ptr nonnull %0, ptr nonnull %1)
  ret void
}